target datalayout = "e-m:e-p270:32:32-p271:32:32-p272:64:64-i64:64-i128:128-f80:128-n8:16:32:64-S128"
target triple = "x86_64-pc-linux-gnu"

%struct.SDL_WaylandSeat = type { ptr, ptr, ptr, ptr, ptr, %struct.wl_list, i32, i32, %struct.anon.1, %struct.anon.3, %struct.anon.6, %struct.anon.7, %struct.anon.8 }
%struct.wl_list = type { ptr, ptr }
%struct.anon.1 = type { ptr, ptr, ptr, ptr, ptr, %struct.SDL_WaylandKeyboardRepeat, i64, i16, i16, i32, i8, %struct.anon.2 }
%struct.SDL_WaylandKeyboardRepeat = type { i32, i32, i32, i8, i8, i32, i64, i64, i64, i32, [8 x i8] }
%struct.anon.2 = type { ptr, ptr, ptr, ptr, i32, i32, i32, i32, i32, i32, i32, i32, i32, i32, i32 }
%struct.anon.3 = type { ptr, ptr, ptr, ptr, ptr, ptr, ptr, ptr, i64, i32, i32, %struct.SDL_Point, i32, %struct.anon.4, %struct.anon.5 }
%struct.SDL_Point = type { i32, i32 }
%struct.anon.4 = type { i32, float, i32, float, i64, i32 }
%struct.anon.5 = type { ptr, ptr, ptr, i64, i64, i32 }
%struct.anon.6 = type { ptr, ptr, i64, %struct.wl_list }
%struct.anon.7 = type { ptr, %struct.SDL_Rect, i8, i8 }
%struct.SDL_Rect = type { i32, i32, i32, i32 }
%struct.anon.8 = type { ptr, %struct.wl_list }
%struct.SDL_VideoDevice = type { ptr, ptr, ptr, ptr, ptr, ptr, ptr, ptr, ptr, ptr, ptr, ptr, ptr, ptr, ptr, ptr, ptr, ptr, ptr, ptr, ptr, ptr, ptr, ptr, ptr, ptr, ptr, ptr, ptr, ptr, ptr, ptr, ptr, ptr, ptr, ptr, ptr, ptr, ptr, ptr, ptr, ptr, ptr, ptr, ptr, ptr, ptr, ptr, ptr, ptr, ptr, ptr, ptr, ptr, ptr, ptr, ptr, ptr, ptr, ptr, ptr, ptr, ptr, ptr, ptr, ptr, ptr, ptr, ptr, ptr, ptr, ptr, ptr, ptr, ptr, ptr, ptr, ptr, ptr, ptr, ptr, ptr, ptr, ptr, ptr, ptr, ptr, ptr, ptr, ptr, ptr, ptr, ptr, ptr, ptr, ptr, ptr, i64, i8, i8, i8, ptr, i32, ptr, %struct.SDL_Rect, ptr, ptr, i32, ptr, ptr, ptr, ptr, i64, ptr, i8, i32, i32, %struct.anon, ptr, ptr, ptr, ptr, ptr, ptr, %struct.SDL_AtomicInt, %struct.SDL_AtomicInt, i8, %struct.anon.0, ptr, ptr, ptr, ptr, ptr }
%struct.anon = type { i32, i32, i32, i32, i32, i32, i32, i32, i32, i32, i32, i32, i32, i32, i32, i32, i32, i32, i32, i32, i32, i32, i32, i32, i32, i32, i32, i32, i32, [256 x i8], ptr }
%struct.SDL_AtomicInt = type { i32 }
%struct.anon.0 = type { ptr, ptr, i32, [256 x i8], ptr }
%struct.SDL_VideoData = type { i8, ptr, i32, ptr, ptr, ptr, ptr, i32, %struct.anon.9, ptr, ptr, ptr, ptr, ptr, ptr, ptr, ptr, ptr, ptr, ptr, ptr, ptr, ptr, ptr, ptr, ptr, ptr, ptr, ptr, ptr, ptr, %struct.wl_list, ptr, ptr, ptr, ptr, i32, i32, i8, i8 }
%struct.anon.9 = type { ptr }
%struct.SDL_Window = type { i32, ptr, ptr, i32, i32, i32, i32, i32, i32, i32, i32, float, float, i32, i32, i64, i64, float, i8, i8, i32, i32, %struct.SDL_Rect, %struct.SDL_Rect, %struct.SDL_Rect, i8, i8, i8, %struct.SDL_DisplayMode, %struct.SDL_DisplayMode, %struct.SDL_HDROutputProperties, float, ptr, i8, i8, i8, i8, i8, i8, i8, i8, i8, i32, i32, i32, i32, %struct.SDL_Rect, i32, i8, %struct.SDL_Rect, i32, %struct.SDL_Rect, ptr, ptr, i32, float, i32, i32, ptr, ptr, ptr, ptr, ptr, ptr, ptr, ptr, ptr }
%struct.SDL_DisplayMode = type { i32, i32, i32, i32, float, float, i32, i32, ptr }
%struct.SDL_HDROutputProperties = type { float, float }

@.str = private unnamed_addr constant [106 x i8] c"wayland: mouse warp failed; compositor lacks support for the required zwp_pointer_confinement_v1 protocol\00", align 1

; Function Attrs: nounwind uwtable
define internal zeroext i1 @Wayland_WarpMouseRelative(ptr noundef %0, float noundef %1, float noundef %2) #0 {
  %4 = alloca i1, align 1
  %5 = alloca ptr, align 8
  %6 = alloca float, align 4
  %7 = alloca float, align 4
  %8 = alloca ptr, align 8
  %9 = alloca ptr, align 8
  %10 = alloca ptr, align 8
  %11 = alloca ptr, align 8
  %12 = alloca i32, align 4
  store ptr %0, ptr %5, align 8
  store float %1, ptr %6, align 4
  store float %2, ptr %7, align 4
  call void @llvm.lifetime.start.p0(i64 8, ptr %8) #7
  %13 = call ptr @SDL_GetVideoDevice()
  store ptr %13, ptr %8, align 8
  call void @llvm.lifetime.start.p0(i64 8, ptr %9) #7
  %14 = load ptr, ptr %8, align 8
  %15 = getelementptr inbounds nuw %struct.SDL_VideoDevice, ptr %14, i32 0, i32 128
  %16 = load ptr, ptr %15, align 8
  store ptr %16, ptr %9, align 8
  call void @llvm.lifetime.start.p0(i64 8, ptr %10) #7
  %17 = load ptr, ptr %5, align 8
  %18 = getelementptr inbounds nuw %struct.SDL_Window, ptr %17, i32 0, i32 59
  %19 = load ptr, ptr %18, align 8
  store ptr %19, ptr %10, align 8
  call void @llvm.lifetime.start.p0(i64 8, ptr %11) #7
  %20 = load ptr, ptr %9, align 8
  %21 = getelementptr inbounds nuw %struct.SDL_VideoData, ptr %20, i32 0, i32 10
  %22 = load ptr, ptr %21, align 8
  %23 = icmp ne ptr %22, null
  br i1 %23, label %24, label %56

24:                                               ; preds = %3
  %25 = load ptr, ptr %9, align 8
  %26 = getelementptr inbounds nuw %struct.SDL_VideoData, ptr %25, i32 0, i32 31
  %27 = getelementptr inbounds nuw %struct.wl_list, ptr %26, i32 0, i32 1
  %28 = load ptr, ptr %27, align 8
  %29 = getelementptr inbounds i8, ptr %28, i64 -40
  store ptr %29, ptr %11, align 8
  br label %30

30:                                               ; preds = %49, %24
  %31 = load ptr, ptr %11, align 8
  %32 = getelementptr inbounds nuw %struct.SDL_WaylandSeat, ptr %31, i32 0, i32 5
  %33 = load ptr, ptr %9, align 8
  %34 = getelementptr inbounds nuw %struct.SDL_VideoData, ptr %33, i32 0, i32 31
  %35 = icmp ne ptr %32, %34
  br i1 %35, label %36, label %55

36:                                               ; preds = %30
  %37 = load ptr, ptr %10, align 8
  %38 = load ptr, ptr %11, align 8
  %39 = getelementptr inbounds nuw %struct.SDL_WaylandSeat, ptr %38, i32 0, i32 9
  %40 = getelementptr inbounds nuw %struct.anon.3, ptr %39, i32 0, i32 6
  %41 = load ptr, ptr %40, align 8
  %42 = icmp eq ptr %37, %41
  br i1 %42, label %43, label %48

43:                                               ; preds = %36
  %44 = load ptr, ptr %11, align 8
  %45 = load ptr, ptr %10, align 8
  %46 = load float, ptr %6, align 4
  %47 = load float, ptr %7, align 4
  call void @Wayland_SeatWarpMouse(ptr noundef %44, ptr noundef %45, float noundef %46, float noundef %47)
  br label %48

48:                                               ; preds = %43, %36
  br label %49

49:                                               ; preds = %48
  %50 = load ptr, ptr %11, align 8
  %51 = getelementptr inbounds nuw %struct.SDL_WaylandSeat, ptr %50, i32 0, i32 5
  %52 = getelementptr inbounds nuw %struct.wl_list, ptr %51, i32 0, i32 1
  %53 = load ptr, ptr %52, align 8
  %54 = getelementptr inbounds i8, ptr %53, i64 -40
  store ptr %54, ptr %11, align 8
  br label %30, !llvm.loop !9

55:                                               ; preds = %30
  br label %58

56:                                               ; preds = %3
  %57 = call zeroext i1 (ptr, ...) @SDL_SetError_REAL(ptr noundef @.str)
  store i1 %57, ptr %4, align 1
  store i32 1, ptr %12, align 4
  br label %59

58:                                               ; preds = %55
  store i1 true, ptr %4, align 1
  store i32 1, ptr %12, align 4
  br label %59

59:                                               ; preds = %58, %56
  call void @llvm.lifetime.end.p0(i64 8, ptr %11) #7
  call void @llvm.lifetime.end.p0(i64 8, ptr %10) #7
  call void @llvm.lifetime.end.p0(i64 8, ptr %9) #7
  call void @llvm.lifetime.end.p0(i64 8, ptr %8) #7
  %60 = load i1, ptr %4, align 1
  ret i1 %60
}