; Function Attrs: nounwind uwtable
define internal zeroext i1 @Wayland_WarpMouseRelative(ptr noundef readonly captures(none) %0, float noundef %1, float noundef %2) #0 {
  %4 = tail call ptr @SDL_GetVideoDevice() #6
  %5 = getelementptr inbounds nuw i8, ptr %4, i64 1656
  %6 = load ptr, ptr %5, align 8
  %7 = getelementptr inbounds nuw i8, ptr %0, i64 392
  %8 = load ptr, ptr %7, align 8
  %9 = getelementptr inbounds nuw i8, ptr %6, i64 80
  %10 = load ptr, ptr %9, align 8
  %.not = icmp eq ptr %10, null
  br i1 %.not, label %20, label %11

11:                                               ; preds = %3
  %12 = getelementptr inbounds nuw i8, ptr %6, i64 248
  %13 = getelementptr inbounds nuw i8, ptr %6, i64 256
  %.pn18 = load ptr, ptr %13, align 8
  %.not1720 = icmp eq ptr %.pn18, %12
  br i1 %.not1720, label %.loopexit, label %.lr.ph

.lr.ph:                                           ; preds = %11, %18
  %.pn21 = phi ptr [ %.pn, %18 ], [ %.pn18, %11 ]
  %14 = getelementptr inbounds nuw i8, ptr %.pn21, i64 280
  %15 = load ptr, ptr %14, align 8
  %16 = icmp eq ptr %8, %15
  br i1 %16, label %17, label %18

17:                                               ; preds = %.lr.ph
  %.022 = getelementptr inbounds i8, ptr %.pn21, i64 -40
  tail call void @Wayland_SeatWarpMouse(ptr noundef nonnull %.022, ptr noundef %8, float noundef %1, float noundef %2)
  br label %18

18:                                               ; preds = %.lr.ph, %17
  %19 = getelementptr inbounds nuw i8, ptr %.pn21, i64 8
  %.pn = load ptr, ptr %19, align 8
  %.not17 = icmp eq ptr %.pn, %12
  br i1 %.not17, label %.loopexit, label %.lr.ph, !llvm.loop !11

20:                                               ; preds = %3
  %21 = tail call zeroext i1 (ptr, ...) @SDL_SetError_REAL(ptr noundef nonnull @.str) #6
  br label %.loopexit

.loopexit:                                        ; preds = %18, %11, %20
  %.014 = phi i1 [ %21, %20 ], [ true, %11 ], [ true, %18 ]
  ret i1 %.014
}